target datalayout = "e-m:e-p270:32:32-p271:32:32-p272:64:64-i64:64-i128:128-f80:128-n8:16:32:64-S128"
target triple = "x86_64-pc-linux-gnu"

%struct.bio_st = type { ptr, ptr, ptr, ptr, ptr, i32, i32, i32, i32, i32, ptr, ptr, ptr, %struct.CRYPTO_REF_COUNT, i64, i64, %struct.crypto_ex_data_st }
%struct.CRYPTO_REF_COUNT = type { i32 }
%struct.crypto_ex_data_st = type { ptr, ptr }
%struct.bio_linebuffer_ctx_struct = type { ptr, i32, i32 }

@.str.2 = private unnamed_addr constant [32 x i8] c"../openssl/crypto/bio/bf_lbuf.c\00", align 1

; Function Attrs: nounwind uwtable
define internal i32 @linebuffer_new(ptr noundef %0) #0 {
  %2 = alloca i32, align 4
  %3 = alloca ptr, align 8
  %4 = alloca ptr, align 8
  %5 = alloca i32, align 4
  store ptr %0, ptr %3, align 8, !tbaa !3
  call void @llvm.lifetime.start.p0(i64 8, ptr %4) #5
  %6 = call noalias ptr @CRYPTO_malloc(i64 noundef 16, ptr noundef @.str.2, i32 noundef 60)
  store ptr %6, ptr %4, align 8, !tbaa !20
  %7 = icmp eq ptr %6, null
  br i1 %7, label %8, label %9

8:                                                ; preds = %1
  store i32 0, ptr %2, align 4
  store i32 1, ptr %5, align 4
  br label %31

9:                                                ; preds = %1
  %10 = call noalias ptr @CRYPTO_malloc(i64 noundef 10240, ptr noundef @.str.2, i32 noundef 62)
  %11 = load ptr, ptr %4, align 8, !tbaa !20
  %12 = getelementptr inbounds nuw %struct.bio_linebuffer_ctx_struct, ptr %11, i32 0, i32 0
  store ptr %10, ptr %12, align 8, !tbaa !29
  %13 = load ptr, ptr %4, align 8, !tbaa !20
  %14 = getelementptr inbounds nuw %struct.bio_linebuffer_ctx_struct, ptr %13, i32 0, i32 0
  %15 = load ptr, ptr %14, align 8, !tbaa !29
  %16 = icmp eq ptr %15, null
  br i1 %16, label %17, label %19

17:                                               ; preds = %9
  %18 = load ptr, ptr %4, align 8, !tbaa !20
  call void @CRYPTO_free(ptr noundef %18, ptr noundef @.str.2, i32 noundef 64)
  store i32 0, ptr %2, align 4
  store i32 1, ptr %5, align 4
  br label %31

19:                                               ; preds = %9
  %20 = load ptr, ptr %4, align 8, !tbaa !20
  %21 = getelementptr inbounds nuw %struct.bio_linebuffer_ctx_struct, ptr %20, i32 0, i32 1
  store i32 10240, ptr %21, align 8, !tbaa !26
  %22 = load ptr, ptr %4, align 8, !tbaa !20
  %23 = getelementptr inbounds nuw %struct.bio_linebuffer_ctx_struct, ptr %22, i32 0, i32 2
  store i32 0, ptr %23, align 4, !tbaa !28
  %24 = load ptr, ptr %3, align 8, !tbaa !3
  %25 = getelementptr inbounds nuw %struct.bio_st, ptr %24, i32 0, i32 5
  store i32 1, ptr %25, align 8, !tbaa !34
  %26 = load ptr, ptr %4, align 8, !tbaa !20
  %27 = load ptr, ptr %3, align 8, !tbaa !3
  %28 = getelementptr inbounds nuw %struct.bio_st, ptr %27, i32 0, i32 10
  store ptr %26, ptr %28, align 8, !tbaa !12
  %29 = load ptr, ptr %3, align 8, !tbaa !3
  %30 = getelementptr inbounds nuw %struct.bio_st, ptr %29, i32 0, i32 7
  store i32 0, ptr %30, align 8, !tbaa !35
  store i32 1, ptr %2, align 4
  store i32 1, ptr %5, align 4
  br label %31

31:                                               ; preds = %19, %17, %8
  call void @llvm.lifetime.end.p0(i64 8, ptr %4) #5
  %32 = load i32, ptr %2, align 4
  ret i32 %32
}