; Function Attrs: nounwind uwtable
define internal range(i32 0, 2) i32 @linebuffer_new(ptr noundef writeonly captures(none) %0) #2 {
  %2 = tail call noalias ptr @CRYPTO_malloc(i64 noundef 16, ptr noundef nonnull @.str.2, i32 noundef 60) #5
  %3 = icmp eq ptr %2, null
  br i1 %3, label %14, label %4

4:                                                ; preds = %1
  %5 = tail call noalias ptr @CRYPTO_malloc(i64 noundef 10240, ptr noundef nonnull @.str.2, i32 noundef 62) #5
  store ptr %5, ptr %2, align 8, !tbaa !24
  %6 = icmp eq ptr %5, null
  br i1 %6, label %7, label %8

7:                                                ; preds = %4
  tail call void @CRYPTO_free(ptr noundef nonnull %2, ptr noundef nonnull @.str.2, i32 noundef 64) #5
  br label %14

8:                                                ; preds = %4
  %9 = getelementptr inbounds nuw i8, ptr %2, i64 8
  store i32 10240, ptr %9, align 8, !tbaa !21
  %10 = getelementptr inbounds nuw i8, ptr %2, i64 12
  store i32 0, ptr %10, align 4, !tbaa !23
  %11 = getelementptr inbounds nuw i8, ptr %0, i64 40
  store i32 1, ptr %11, align 8, !tbaa !27
  %12 = getelementptr inbounds nuw i8, ptr %0, i64 64
  store ptr %2, ptr %12, align 8, !tbaa !3
  %13 = getelementptr inbounds nuw i8, ptr %0, i64 48
  store i32 0, ptr %13, align 8, !tbaa !28
  br label %14

14:                                               ; preds = %1, %8, %7
  %.0 = phi i32 [ 0, %7 ], [ 1, %8 ], [ 0, %1 ]
  ret i32 %.0
}